target datalayout = "e-m:e-p270:32:32-p271:32:32-p272:64:64-i64:64-i128:128-f80:128-n8:16:32:64-S128"
target triple = "x86_64-pc-linux-gnu"

%struct.arguments = type { ptr, ptr, ptr }

@argsinsert = dso_local global ptr null, align 8
@argsresult = dso_local global ptr null, align 8

; Function Attrs: nounwind uwtable
define dso_local void @reset_variables() #0 {
  %1 = alloca ptr, align 8
  %2 = alloca ptr, align 8
  call void @llvm.lifetime.start.p0(i64 8, ptr %1) #7
  call void @llvm.lifetime.start.p0(i64 8, ptr %2) #7
  %3 = load ptr, ptr @argsinsert, align 8
  store ptr %3, ptr %1, align 8
  br label %4

4:                                                ; preds = %12, %0
  %5 = load ptr, ptr %1, align 8
  %6 = icmp ne ptr %5, null
  br i1 %6, label %7, label %14

7:                                                ; preds = %4
  %8 = load ptr, ptr %1, align 8
  %9 = getelementptr inbounds nuw %struct.arguments, ptr %8, i32 0, i32 2
  %10 = load ptr, ptr %9, align 8
  store ptr %10, ptr %2, align 8
  %11 = load ptr, ptr %1, align 8
  call void @free(ptr noundef %11) #7
  br label %12

12:                                               ; preds = %7
  %13 = load ptr, ptr %2, align 8
  store ptr %13, ptr %1, align 8
  br label %4, !llvm.loop !12

14:                                               ; preds = %4
  store ptr null, ptr @argsinsert, align 8
  %15 = load ptr, ptr @argsresult, align 8
  store ptr %15, ptr %1, align 8
  br label %16

16:                                               ; preds = %24, %14
  %17 = load ptr, ptr %1, align 8
  %18 = icmp ne ptr %17, null
  br i1 %18, label %19, label %26

19:                                               ; preds = %16
  %20 = load ptr, ptr %1, align 8
  %21 = getelementptr inbounds nuw %struct.arguments, ptr %20, i32 0, i32 2
  %22 = load ptr, ptr %21, align 8
  store ptr %22, ptr %2, align 8
  %23 = load ptr, ptr %1, align 8
  call void @free(ptr noundef %23) #7
  br label %24

24:                                               ; preds = %19
  %25 = load ptr, ptr %2, align 8
  store ptr %25, ptr %1, align 8
  br label %16, !llvm.loop !13

26:                                               ; preds = %16
  store ptr null, ptr @argsresult, align 8
  call void @llvm.lifetime.end.p0(i64 8, ptr %2) #7
  call void @llvm.lifetime.end.p0(i64 8, ptr %1) #7
  ret void
}