; Function Attrs: nounwind uwtable
define dso_local void @reset_variables() local_unnamed_addr #0 {
  %1 = load ptr, ptr @argsinsert, align 8
  %.not9 = icmp eq ptr %1, null
  br i1 %.not9, label %._crit_edge, label %.lr.ph

.lr.ph:                                           ; preds = %0, %.lr.ph
  %.010 = phi ptr [ %3, %.lr.ph ], [ %1, %0 ]
  %2 = getelementptr inbounds nuw i8, ptr %.010, i64 16
  %3 = load ptr, ptr %2, align 8
  tail call void @free(ptr noundef nonnull %.010) #6
  %.not = icmp eq ptr %3, null
  br i1 %.not, label %._crit_edge, label %.lr.ph, !llvm.loop !12

._crit_edge:                                      ; preds = %.lr.ph, %0
  store ptr null, ptr @argsinsert, align 8
  %4 = load ptr, ptr @argsresult, align 8
  %.not811 = icmp eq ptr %4, null
  br i1 %.not811, label %._crit_edge15, label %.lr.ph14

.lr.ph14:                                         ; preds = %._crit_edge, %.lr.ph14
  %.112 = phi ptr [ %6, %.lr.ph14 ], [ %4, %._crit_edge ]
  %5 = getelementptr inbounds nuw i8, ptr %.112, i64 16
  %6 = load ptr, ptr %5, align 8
  tail call void @free(ptr noundef nonnull %.112) #6
  %.not8 = icmp eq ptr %6, null
  br i1 %.not8, label %._crit_edge15, label %.lr.ph14, !llvm.loop !13

._crit_edge15:                                    ; preds = %.lr.ph14, %._crit_edge
  store ptr null, ptr @argsresult, align 8
  ret void
}